Certificate:
    Data:
        Version: 3 (0x2)
        Serial Number:
            79:19:ae:17:d7:ad:42:ff:19:52:e4:92:34:19:3b:f2:d3:94:61:94
        Signature Algorithm: ED25519
        Issuer: CN = localhost
        Validity
            Not Before: Nov 24 07:49:10 2024 GMT
            Not After : Nov 27 07:49:10 2024 GMT
        Subject: CN = localhost
        Subject Public Key Info:
            Public Key Algorithm: ED25519
                ED25519 Public-Key:
                pub:
                    f4:aa:04:65:c2:c4:3d:56:ac:49:87:c6:1c:85:00:
                    c0:58:f4:9c:c2:3c:c9:2f:4a:b2:22:0d:c6:98:8d:
                    b0:5c
        X509v3 extensions:
            X509v3 Subject Alternative Name: 
                DNS:localhost, DNS:*.local
            X509v3 Subject Key Identifier: 
                78:3D:CA:4D:DF:99:50:03:B2:79:50:28:4D:E3:41:51:3A:2E:2A:ED
    Signature Algorithm: ED25519
    Signature Value:
        e3:f0:e4:60:45:21:5b:bc:7a:c7:4e:d0:e6:56:b4:61:92:2a:
        3b:35:f8:1a:5b:57:2f:a3:03:73:1a:82:8f:40:ad:25:2c:9f:
        a7:46:86:ef:a3:07:67:8b:32:60:d1:37:a1:f3:f7:ae:2a:12:
        66:57:28:fc:a2:b7:ff:eb:84:0d
-----BEGIN CERTIFICATE-----
MIIBKTCB3KADAgECAhR5Ga4X161C/xlS5JI0GTvy05RhlDAFBgMrZXAwFDESMBAG
A1UEAwwJbG9jYWxob3N0MB4XDTI0MTEyNDA3NDkxMFoXDTI0MTEyNzA3NDkxMFow
FDESMBAGA1UEAwwJbG9jYWxob3N0MCowBQYDK2VwAyEA9KoEZcLEPVasSYfGHIUA
wFj0nMI8yS9KsiINxpiNsFyjQDA+MB0GA1UdEQQWMBSCCWxvY2FsaG9zdIIHKi5s
b2NhbDAdBgNVHQ4EFgQUeD3KTd+ZUAOyeVAoTeNBUTouKu0wBQYDK2VwA0EA4/Dk
YEUhW7x6x07Q5la0YZIqOzX4GltXL6MDcxqCj0CtJSyfp0aG76MHZ4syYNE3ofP3
rioSZlco/KK3/+uEDQ==
-----END CERTIFICATE-----
